target datalayout = "e-m:e-p270:32:32-p271:32:32-p272:64:64-i64:64-i128:128-f80:128-n8:16:32:64-S128"
target triple = "x86_64-pc-linux-gnu"

%"struct.pkpy::Str" = type { i32, i8, ptr, [16 x i8] }

; Function Attrs: mustprogress nounwind uwtable
define void @_ZN4pkpy3StrC2Ev(ptr noundef nonnull align 8 dereferenceable(32) %0) unnamed_addr #5 align 2 {
  %2 = alloca ptr, align 8
  store ptr %0, ptr %2, align 8
  %3 = load ptr, ptr %2, align 8
  %4 = getelementptr inbounds %"struct.pkpy::Str", ptr %3, i32 0, i32 0
  store i32 0, ptr %4, align 8
  %5 = getelementptr inbounds %"struct.pkpy::Str", ptr %3, i32 0, i32 1
  store i8 1, ptr %5, align 4
  %6 = getelementptr inbounds %"struct.pkpy::Str", ptr %3, i32 0, i32 2
  %7 = getelementptr inbounds %"struct.pkpy::Str", ptr %3, i32 0, i32 3
  %8 = getelementptr inbounds [16 x i8], ptr %7, i64 0, i64 0
  store ptr %8, ptr %6, align 8
  %9 = getelementptr inbounds %"struct.pkpy::Str", ptr %3, i32 0, i32 3
  %10 = getelementptr inbounds [16 x i8], ptr %9, i64 0, i64 0
  store i8 0, ptr %10, align 8
  ret void
}