; Function Attrs: mustprogress nofree norecurse nosync nounwind willreturn memory(argmem: write) uwtable
define void @_ZN4pkpy3StrC2Ev(ptr noundef nonnull align 8 dereferenceable(32) %0) unnamed_addr #5 align 2 {
  store i32 0, ptr %0, align 8
  %2 = getelementptr inbounds i8, ptr %0, i64 4
  store i8 1, ptr %2, align 4
  %3 = getelementptr inbounds i8, ptr %0, i64 8
  %4 = getelementptr inbounds i8, ptr %0, i64 16
  store ptr %4, ptr %3, align 8
  store i8 0, ptr %4, align 8
  ret void
}